target datalayout = "e-m:e-p270:32:32-p271:32:32-p272:64:64-i64:64-i128:128-f80:128-n8:16:32:64-S128"
target triple = "x86_64-pc-linux-gnu"

%struct.Abc_Frame_t_ = type { ptr, ptr, ptr, ptr, ptr, ptr, ptr, ptr, ptr, ptr, i32, i32, i32, i32, i32, ptr, float, float, i32, i32, ptr, ptr, ptr, double, double, ptr, ptr, ptr, ptr, ptr, ptr, ptr, ptr, ptr, ptr, ptr, ptr, float, ptr, i32, ptr, ptr, ptr, ptr, ptr, i32, i32, i32, i32, i32, i32, ptr, ptr, ptr, ptr, ptr, ptr, i32, i32, ptr, ptr, ptr, ptr, ptr, ptr, ptr, ptr, ptr, ptr, ptr, ptr, ptr, ptr, ptr, ptr, ptr, ptr, ptr, ptr, ptr, ptr, ptr, ptr, ptr, ptr, ptr, ptr, ptr, ptr }

@globalUtilOptind = external global i32, align 4
@.str.113 = private unnamed_addr constant [4 x i8] c"yes\00", align 1
@.str.114 = private unnamed_addr constant [3 x i8] c"no\00", align 1
@.str.115 = private unnamed_addr constant [61 x i8] c"\09-c     : toggle network check after reading [default = %s]\0A\00", align 1
@.str.118 = private unnamed_addr constant [38 x i8] c"\09-h     : prints the command summary\0A\00", align 1
@.str.119 = private unnamed_addr constant [38 x i8] c"\09file   : the name of a file to read\0A\00", align 1
@.str.122 = private unnamed_addr constant [3 x i8] c"ch\00", align 1
@.str.123 = private unnamed_addr constant [32 x i8] c"usage: read_aiger [-ch] <file>\0A\00", align 1
@.str.124 = private unnamed_addr constant [75 x i8] c"\09         reads the network in the AIGER format (http://fmv.jku.at/aiger)\0A\00", align 1

; Function Attrs: nounwind uwtable
define internal i32 @IoCommandReadAiger(ptr noundef %0, i32 noundef %1, ptr noundef %2) #0 {
  %4 = alloca i32, align 4
  %5 = alloca ptr, align 8
  %6 = alloca i32, align 4
  %7 = alloca ptr, align 8
  %8 = alloca ptr, align 8
  %9 = alloca ptr, align 8
  %10 = alloca i32, align 4
  %11 = alloca i32, align 4
  %12 = alloca i32, align 4
  store ptr %0, ptr %5, align 8, !tbaa !3
  store i32 %1, ptr %6, align 4, !tbaa !8
  store ptr %2, ptr %7, align 8, !tbaa !10
  call void @llvm.lifetime.start.p0(i64 8, ptr %8) #11
  call void @llvm.lifetime.start.p0(i64 8, ptr %9) #11
  call void @llvm.lifetime.start.p0(i64 4, ptr %10) #11
  call void @llvm.lifetime.start.p0(i64 4, ptr %11) #11
  store i32 1, ptr %10, align 4, !tbaa !8
  call void (...) @Extra_UtilGetoptReset()
  br label %13

13:                                               ; preds = %25, %3
  %14 = load i32, ptr %6, align 4, !tbaa !8
  %15 = load ptr, ptr %7, align 8, !tbaa !10
  %16 = call i32 @Extra_UtilGetopt(i32 noundef %14, ptr noundef %15, ptr noundef @.str.122)
  store i32 %16, ptr %11, align 4, !tbaa !8
  %17 = icmp ne i32 %16, -1
  br i1 %17, label %18, label %26

18:                                               ; preds = %13
  %19 = load i32, ptr %11, align 4, !tbaa !8
  switch i32 %19, label %24 [
    i32 99, label %20
    i32 104, label %23
  ]

20:                                               ; preds = %18
  %21 = load i32, ptr %10, align 4, !tbaa !8
  %22 = xor i32 %21, 1
  store i32 %22, ptr %10, align 4, !tbaa !8
  br label %25

23:                                               ; preds = %18
  br label %48

24:                                               ; preds = %18
  br label %48

25:                                               ; preds = %20
  br label %13, !llvm.loop !36

26:                                               ; preds = %13
  %27 = load i32, ptr %6, align 4, !tbaa !8
  %28 = load i32, ptr @globalUtilOptind, align 4, !tbaa !8
  %29 = add nsw i32 %28, 1
  %30 = icmp ne i32 %27, %29
  br i1 %30, label %31, label %32

31:                                               ; preds = %26
  br label %48

32:                                               ; preds = %26
  %33 = load ptr, ptr %7, align 8, !tbaa !10
  %34 = load i32, ptr @globalUtilOptind, align 4, !tbaa !8
  %35 = sext i32 %34 to i64
  %36 = getelementptr inbounds ptr, ptr %33, i64 %35
  %37 = load ptr, ptr %36, align 8, !tbaa !14
  store ptr %37, ptr %9, align 8, !tbaa !14
  %38 = load ptr, ptr %9, align 8, !tbaa !14
  %39 = load i32, ptr %10, align 4, !tbaa !8
  %40 = call ptr @Io_Read(ptr noundef %38, i32 noundef 1, i32 noundef %39, i32 noundef 0)
  store ptr %40, ptr %8, align 8, !tbaa !18
  %41 = load ptr, ptr %8, align 8, !tbaa !18
  %42 = icmp eq ptr %41, null
  br i1 %42, label %43, label %44

43:                                               ; preds = %32
  store i32 1, ptr %4, align 4
  store i32 1, ptr %12, align 4
  br label %72

44:                                               ; preds = %32
  %45 = load ptr, ptr %5, align 8, !tbaa !3
  %46 = load ptr, ptr %8, align 8, !tbaa !18
  call void @Abc_FrameReplaceCurrentNetwork(ptr noundef %45, ptr noundef %46)
  %47 = load ptr, ptr %5, align 8, !tbaa !3
  call void @Abc_FrameClearVerifStatus(ptr noundef %47)
  store i32 0, ptr %4, align 4
  store i32 1, ptr %12, align 4
  br label %72

48:                                               ; preds = %31, %24, %23
  %49 = load ptr, ptr %5, align 8, !tbaa !3
  %50 = getelementptr inbounds nuw %struct.Abc_Frame_t_, ptr %49, i32 0, i32 21
  %51 = load ptr, ptr %50, align 8, !tbaa !24
  %52 = call i32 (ptr, ptr, ...) @fprintf(ptr noundef %51, ptr noundef @.str.123) #11
  %53 = load ptr, ptr %5, align 8, !tbaa !3
  %54 = getelementptr inbounds nuw %struct.Abc_Frame_t_, ptr %53, i32 0, i32 21
  %55 = load ptr, ptr %54, align 8, !tbaa !24
  %56 = call i32 (ptr, ptr, ...) @fprintf(ptr noundef %55, ptr noundef @.str.124) #11
  %57 = load ptr, ptr %5, align 8, !tbaa !3
  %58 = getelementptr inbounds nuw %struct.Abc_Frame_t_, ptr %57, i32 0, i32 21
  %59 = load ptr, ptr %58, align 8, !tbaa !24
  %60 = load i32, ptr %10, align 4, !tbaa !8
  %61 = icmp ne i32 %60, 0
  %62 = select i1 %61, ptr @.str.113, ptr @.str.114
  %63 = call i32 (ptr, ptr, ...) @fprintf(ptr noundef %59, ptr noundef @.str.115, ptr noundef %62) #11
  %64 = load ptr, ptr %5, align 8, !tbaa !3
  %65 = getelementptr inbounds nuw %struct.Abc_Frame_t_, ptr %64, i32 0, i32 21
  %66 = load ptr, ptr %65, align 8, !tbaa !24
  %67 = call i32 (ptr, ptr, ...) @fprintf(ptr noundef %66, ptr noundef @.str.118) #11
  %68 = load ptr, ptr %5, align 8, !tbaa !3
  %69 = getelementptr inbounds nuw %struct.Abc_Frame_t_, ptr %68, i32 0, i32 21
  %70 = load ptr, ptr %69, align 8, !tbaa !24
  %71 = call i32 (ptr, ptr, ...) @fprintf(ptr noundef %70, ptr noundef @.str.119) #11
  store i32 1, ptr %4, align 4
  store i32 1, ptr %12, align 4
  br label %72

72:                                               ; preds = %48, %44, %43
  call void @llvm.lifetime.end.p0(i64 4, ptr %11) #11
  call void @llvm.lifetime.end.p0(i64 4, ptr %10) #11
  call void @llvm.lifetime.end.p0(i64 8, ptr %9) #11
  call void @llvm.lifetime.end.p0(i64 8, ptr %8) #11
  %73 = load i32, ptr %4, align 4
  ret i32 %73
}